
kernel8.elf:     file format elf64-littleaarch64

Sections:
Idx Name          Size      VMA               LMA               File off  Algn
  0 .text         00001258  0000000000080000  0000000000080000  00000800  2**11
                  CONTENTS, ALLOC, LOAD, READONLY, CODE
  1 .rodata       00000048  0000000000081258  0000000000081258  00001a58  2**3
                  CONTENTS, ALLOC, LOAD, READONLY, DATA
  2 .bss          00000004  00000000000812a0  00000000000812a0  00001aa0  2**2
                  ALLOC
Contents of section .text:
 80000 a10038d5 3f0440f2 60000054 5f2003d5  ..8.?.@.`..T_ ..
 80010 ffffff17 01000090 21000091 01411cd5  ........!....A..
 80020 0000b0d2 00007fb2 00111cd5 02000090  ................
 80030 42002091 02c018d5 827880d2 02401cd5  B. ......x...@..
 80040 62000010 22401cd5 e0039fd6 3f000091  b..."@......?...
 80050 010000b0 21800a91 62490018 82000034  ....!...bI.....4
 80060 3f8400f8 42040051 a2ffff35 bf030094  ?...B..Q...5....
 80070 e7ffff17 e0039fd6 e007bfa9 e20fbfa9  ................
 80080 e417bfa9 e61fbfa9 e827bfa9 ea2fbfa9  .........'.../..
 80090 ec37bfa9 ee3fbfa9 f047bfa9 f24fbfa9  .7...?...G...O..
 800a0 f457bfa9 f65fbfa9 f867bfa9 fa6fbfa9  .W..._...g...o..
 800b0 fc77bfa9 fe0f1ff8 4a040094 fe0741f8  .w......J.....A.
 800c0 fc77c1a8 fa6fc1a8 f867c1a8 f65fc1a8  .w...o...g..._..
 800d0 f457c1a8 f24fc1a8 f047c1a8 ee3fc1a8  .W...O...G...?..
 800e0 ec37c1a8 ea2fc1a8 e827c1a8 e61fc1a8  .7.../...'......
 800f0 e417c1a8 e20fc1a8 e007c1a8 e0039fd6  ................
 80100 e0039fd6 e0039fd6 1f2003d5 1f2003d5  ......... ... ..
 80110 1f2003d5 1f2003d5 1f2003d5 1f2003d5  . ... ... ... ..
 80120 1f2003d5 1f2003d5 1f2003d5 1f2003d5  . ... ... ... ..
 80130 1f2003d5 1f2003d5 1f2003d5 1f2003d5  . ... ... ... ..
 80140 1f2003d5 1f2003d5 1f2003d5 1f2003d5  . ... ... ... ..
 80150 1f2003d5 1f2003d5 1f2003d5 1f2003d5  . ... ... ... ..
 80160 1f2003d5 1f2003d5 1f2003d5 1f2003d5  . ... ... ... ..
 80170 1f2003d5 1f2003d5 1f2003d5 1f2003d5  . ... ... ... ..
 80180 1f2003d5 1f2003d5 1f2003d5 1f2003d5  . ... ... ... ..
 80190 1f2003d5 1f2003d5 1f2003d5 1f2003d5  . ... ... ... ..
 801a0 1f2003d5 1f2003d5 1f2003d5 1f2003d5  . ... ... ... ..
 801b0 1f2003d5 1f2003d5 1f2003d5 1f2003d5  . ... ... ... ..
 801c0 1f2003d5 1f2003d5 1f2003d5 1f2003d5  . ... ... ... ..
 801d0 1f2003d5 1f2003d5 1f2003d5 1f2003d5  . ... ... ... ..
 801e0 1f2003d5 1f2003d5 1f2003d5 1f2003d5  . ... ... ... ..
 801f0 1f2003d5 1f2003d5 1f2003d5 1f2003d5  . ... ... ... ..
 80200 1f2003d5 1f2003d5 1f2003d5 1f2003d5  . ... ... ... ..
 80210 1f2003d5 1f2003d5 1f2003d5 1f2003d5  . ... ... ... ..
 80220 1f2003d5 1f2003d5 1f2003d5 1f2003d5  . ... ... ... ..
 80230 1f2003d5 1f2003d5 1f2003d5 1f2003d5  . ... ... ... ..
 80240 1f2003d5 1f2003d5 1f2003d5 1f2003d5  . ... ... ... ..
 80250 1f2003d5 1f2003d5 1f2003d5 1f2003d5  . ... ... ... ..
 80260 1f2003d5 1f2003d5 1f2003d5 1f2003d5  . ... ... ... ..
 80270 1f2003d5 1f2003d5 1f2003d5 1f2003d5  . ... ... ... ..
 80280 1f2003d5 1f2003d5 1f2003d5 1f2003d5  . ... ... ... ..
 80290 1f2003d5 1f2003d5 1f2003d5 1f2003d5  . ... ... ... ..
 802a0 1f2003d5 1f2003d5 1f2003d5 1f2003d5  . ... ... ... ..
 802b0 1f2003d5 1f2003d5 1f2003d5 1f2003d5  . ... ... ... ..
 802c0 1f2003d5 1f2003d5 1f2003d5 1f2003d5  . ... ... ... ..
 802d0 1f2003d5 1f2003d5 1f2003d5 1f2003d5  . ... ... ... ..
 802e0 1f2003d5 1f2003d5 1f2003d5 1f2003d5  . ... ... ... ..
 802f0 1f2003d5 1f2003d5 1f2003d5 1f2003d5  . ... ... ... ..
 80300 1f2003d5 1f2003d5 1f2003d5 1f2003d5  . ... ... ... ..
 80310 1f2003d5 1f2003d5 1f2003d5 1f2003d5  . ... ... ... ..
 80320 1f2003d5 1f2003d5 1f2003d5 1f2003d5  . ... ... ... ..
 80330 1f2003d5 1f2003d5 1f2003d5 1f2003d5  . ... ... ... ..
 80340 1f2003d5 1f2003d5 1f2003d5 1f2003d5  . ... ... ... ..
 80350 1f2003d5 1f2003d5 1f2003d5 1f2003d5  . ... ... ... ..
 80360 1f2003d5 1f2003d5 1f2003d5 1f2003d5  . ... ... ... ..
 80370 1f2003d5 1f2003d5 1f2003d5 1f2003d5  . ... ... ... ..
 80380 1f2003d5 1f2003d5 1f2003d5 1f2003d5  . ... ... ... ..
 80390 1f2003d5 1f2003d5 1f2003d5 1f2003d5  . ... ... ... ..
 803a0 1f2003d5 1f2003d5 1f2003d5 1f2003d5  . ... ... ... ..
 803b0 1f2003d5 1f2003d5 1f2003d5 1f2003d5  . ... ... ... ..
 803c0 1f2003d5 1f2003d5 1f2003d5 1f2003d5  . ... ... ... ..
 803d0 1f2003d5 1f2003d5 1f2003d5 1f2003d5  . ... ... ... ..
 803e0 1f2003d5 1f2003d5 1f2003d5 1f2003d5  . ... ... ... ..
 803f0 1f2003d5 1f2003d5 1f2003d5 1f2003d5  . ... ... ... ..
 80400 1f2003d5 1f2003d5 1f2003d5 1f2003d5  . ... ... ... ..
 80410 1f2003d5 1f2003d5 1f2003d5 1f2003d5  . ... ... ... ..
 80420 1f2003d5 1f2003d5 1f2003d5 1f2003d5  . ... ... ... ..
 80430 1f2003d5 1f2003d5 1f2003d5 1f2003d5  . ... ... ... ..
 80440 1f2003d5 1f2003d5 1f2003d5 1f2003d5  . ... ... ... ..
 80450 1f2003d5 1f2003d5 1f2003d5 1f2003d5  . ... ... ... ..
 80460 1f2003d5 1f2003d5 1f2003d5 1f2003d5  . ... ... ... ..
 80470 1f2003d5 1f2003d5 1f2003d5 1f2003d5  . ... ... ... ..
 80480 1f2003d5 1f2003d5 1f2003d5 1f2003d5  . ... ... ... ..
 80490 1f2003d5 1f2003d5 1f2003d5 1f2003d5  . ... ... ... ..
 804a0 1f2003d5 1f2003d5 1f2003d5 1f2003d5  . ... ... ... ..
 804b0 1f2003d5 1f2003d5 1f2003d5 1f2003d5  . ... ... ... ..
 804c0 1f2003d5 1f2003d5 1f2003d5 1f2003d5  . ... ... ... ..
 804d0 1f2003d5 1f2003d5 1f2003d5 1f2003d5  . ... ... ... ..
 804e0 1f2003d5 1f2003d5 1f2003d5 1f2003d5  . ... ... ... ..
 804f0 1f2003d5 1f2003d5 1f2003d5 1f2003d5  . ... ... ... ..
 80500 1f2003d5 1f2003d5 1f2003d5 1f2003d5  . ... ... ... ..
 80510 1f2003d5 1f2003d5 1f2003d5 1f2003d5  . ... ... ... ..
 80520 1f2003d5 1f2003d5 1f2003d5 1f2003d5  . ... ... ... ..
 80530 1f2003d5 1f2003d5 1f2003d5 1f2003d5  . ... ... ... ..
 80540 1f2003d5 1f2003d5 1f2003d5 1f2003d5  . ... ... ... ..
 80550 1f2003d5 1f2003d5 1f2003d5 1f2003d5  . ... ... ... ..
 80560 1f2003d5 1f2003d5 1f2003d5 1f2003d5  . ... ... ... ..
 80570 1f2003d5 1f2003d5 1f2003d5 1f2003d5  . ... ... ... ..
 80580 1f2003d5 1f2003d5 1f2003d5 1f2003d5  . ... ... ... ..
 80590 1f2003d5 1f2003d5 1f2003d5 1f2003d5  . ... ... ... ..
 805a0 1f2003d5 1f2003d5 1f2003d5 1f2003d5  . ... ... ... ..
 805b0 1f2003d5 1f2003d5 1f2003d5 1f2003d5  . ... ... ... ..
 805c0 1f2003d5 1f2003d5 1f2003d5 1f2003d5  . ... ... ... ..
 805d0 1f2003d5 1f2003d5 1f2003d5 1f2003d5  . ... ... ... ..
 805e0 1f2003d5 1f2003d5 1f2003d5 1f2003d5  . ... ... ... ..
 805f0 1f2003d5 1f2003d5 1f2003d5 1f2003d5  . ... ... ... ..
 80600 1f2003d5 1f2003d5 1f2003d5 1f2003d5  . ... ... ... ..
 80610 1f2003d5 1f2003d5 1f2003d5 1f2003d5  . ... ... ... ..
 80620 1f2003d5 1f2003d5 1f2003d5 1f2003d5  . ... ... ... ..
 80630 1f2003d5 1f2003d5 1f2003d5 1f2003d5  . ... ... ... ..
 80640 1f2003d5 1f2003d5 1f2003d5 1f2003d5  . ... ... ... ..
 80650 1f2003d5 1f2003d5 1f2003d5 1f2003d5  . ... ... ... ..
 80660 1f2003d5 1f2003d5 1f2003d5 1f2003d5  . ... ... ... ..
 80670 1f2003d5 1f2003d5 1f2003d5 1f2003d5  . ... ... ... ..
 80680 1f2003d5 1f2003d5 1f2003d5 1f2003d5  . ... ... ... ..
 80690 1f2003d5 1f2003d5 1f2003d5 1f2003d5  . ... ... ... ..
 806a0 1f2003d5 1f2003d5 1f2003d5 1f2003d5  . ... ... ... ..
 806b0 1f2003d5 1f2003d5 1f2003d5 1f2003d5  . ... ... ... ..
 806c0 1f2003d5 1f2003d5 1f2003d5 1f2003d5  . ... ... ... ..
 806d0 1f2003d5 1f2003d5 1f2003d5 1f2003d5  . ... ... ... ..
 806e0 1f2003d5 1f2003d5 1f2003d5 1f2003d5  . ... ... ... ..
 806f0 1f2003d5 1f2003d5 1f2003d5 1f2003d5  . ... ... ... ..
 80700 1f2003d5 1f2003d5 1f2003d5 1f2003d5  . ... ... ... ..
 80710 1f2003d5 1f2003d5 1f2003d5 1f2003d5  . ... ... ... ..
 80720 1f2003d5 1f2003d5 1f2003d5 1f2003d5  . ... ... ... ..
 80730 1f2003d5 1f2003d5 1f2003d5 1f2003d5  . ... ... ... ..
 80740 1f2003d5 1f2003d5 1f2003d5 1f2003d5  . ... ... ... ..
 80750 1f2003d5 1f2003d5 1f2003d5 1f2003d5  . ... ... ... ..
 80760 1f2003d5 1f2003d5 1f2003d5 1f2003d5  . ... ... ... ..
 80770 1f2003d5 1f2003d5 1f2003d5 1f2003d5  . ... ... ... ..
 80780 1f2003d5 1f2003d5 1f2003d5 1f2003d5  . ... ... ... ..
 80790 1f2003d5 1f2003d5 1f2003d5 1f2003d5  . ... ... ... ..
 807a0 1f2003d5 1f2003d5 1f2003d5 1f2003d5  . ... ... ... ..
 807b0 1f2003d5 1f2003d5 1f2003d5 1f2003d5  . ... ... ... ..
 807c0 1f2003d5 1f2003d5 1f2003d5 1f2003d5  . ... ... ... ..
 807d0 1f2003d5 1f2003d5 1f2003d5 1f2003d5  . ... ... ... ..
 807e0 1f2003d5 1f2003d5 1f2003d5 1f2003d5  . ... ... ... ..
 807f0 1f2003d5 1f2003d5 1f2003d5 1f2003d5  . ... ... ... ..
 80800 1dfeff17 1f2003d5 1f2003d5 1f2003d5  ..... ... ... ..
 80810 1f2003d5 1f2003d5 1f2003d5 1f2003d5  . ... ... ... ..
 80820 1f2003d5 1f2003d5 1f2003d5 1f2003d5  . ... ... ... ..
 80830 1f2003d5 1f2003d5 1f2003d5 1f2003d5  . ... ... ... ..
 80840 1f2003d5 1f2003d5 1f2003d5 1f2003d5  . ... ... ... ..
 80850 1f2003d5 1f2003d5 1f2003d5 1f2003d5  . ... ... ... ..
 80860 1f2003d5 1f2003d5 1f2003d5 1f2003d5  . ... ... ... ..
 80870 1f2003d5 1f2003d5 1f2003d5 1f2003d5  . ... ... ... ..
 80880 fefdff17 1f2003d5 1f2003d5 1f2003d5  ..... ... ... ..
 80890 1f2003d5 1f2003d5 1f2003d5 1f2003d5  . ... ... ... ..
 808a0 1f2003d5 1f2003d5 1f2003d5 1f2003d5  . ... ... ... ..
 808b0 1f2003d5 1f2003d5 1f2003d5 1f2003d5  . ... ... ... ..
 808c0 1f2003d5 1f2003d5 1f2003d5 1f2003d5  . ... ... ... ..
 808d0 1f2003d5 1f2003d5 1f2003d5 1f2003d5  . ... ... ... ..
 808e0 1f2003d5 1f2003d5 1f2003d5 1f2003d5  . ... ... ... ..
 808f0 1f2003d5 1f2003d5 1f2003d5 1f2003d5  . ... ... ... ..
 80900 00feff17 1f2003d5 1f2003d5 1f2003d5  ..... ... ... ..
 80910 1f2003d5 1f2003d5 1f2003d5 1f2003d5  . ... ... ... ..
 80920 1f2003d5 1f2003d5 1f2003d5 1f2003d5  . ... ... ... ..
 80930 1f2003d5 1f2003d5 1f2003d5 1f2003d5  . ... ... ... ..
 80940 1f2003d5 1f2003d5 1f2003d5 1f2003d5  . ... ... ... ..
 80950 1f2003d5 1f2003d5 1f2003d5 1f2003d5  . ... ... ... ..
 80960 1f2003d5 1f2003d5 1f2003d5 1f2003d5  . ... ... ... ..
 80970 1f2003d5 1f2003d5 1f2003d5 1f2003d5  . ... ... ... ..
 80980 e1fdff17 00000000 404238d5 00fc42d3  ........@B8...B.
 80990 00044092 c0035fd6 004238d5 c0035fd6  ..@..._..B8..._.
 809a0 00423bd5 00fc5cd3 000c4092 c0035fd6  .B;...\...@..._.
 809b0 20423bd5 00fc46d3 000c4092 c0035fd6   B;...F...@..._.
 809c0 ff4f03d5 c0035fd6 df4f03d5 c0035fd6  .O...._..O...._.
 809d0 ff4203d5 c0035fd6 df4203d5 c0035fd6  .B...._..B...._.
 809e0 ff4103d5 c0035fd6 df4103d5 c0035fd6  .A...._..A...._.
 809f0 020186d2 830086d2 02e0a7f2 03e0a7f2  ................
 80a00 400040b9 610040b9 440040b9 9f00006b  @.@.a.@.D.@....k
 80a10 60000054 400040b9 610040b9 e103012a  `..T@.@.a.@....*
 80a20 208000aa c0035fd6 030186d2 840086d2   ....._.........
 80a30 03e0a7f2 04e0a7f2 650040b9 820040b9  ........e.@...@.
 80a40 610040b9 bf00016b 60000054 610040b9  a.@....k`..Ta.@.
 80a50 820040b9 e203022a 418001aa 410200b4  ..@....*A...A...
 80a60 030186d2 850086d2 2040208b 03e0a7f2  ........ @ .....
 80a70 05e0a7f2 1f2003d5 640040b9 a20040b9  ..... ..d.@...@.
 80a80 610040b9 9f00016b 60000054 610040b9  a.@....k`..Ta.@.
 80a90 a20040b9 e203022a 418001aa 1f0001eb  ..@....*A.......
 80aa0 c8feff54 c0035fd6 820080d2 831280d2  ...T.._.........
 80ab0 02e4a7f2 03e4a7f2 04008452 c0128052  ...........R...R
 80ac0 410040b9 2400a072 21640e12 2100042a  A.@.$..r!d..!..*
 80ad0 410000b9 7f0000b9 1f2003d5 00040071  A........ .....q
 80ae0 c1ffff54 011380d2 02009852 01e4a7f2  ...T.......R....
 80af0 c0128052 220000b9 1f2003d5 00040071  ...R".... .....q
 80b00 c1ffff54 001380d2 83008ad2 00e4a7f2  ...T............
 80b10 23e4a7f2 89088ad2 010c8ad2 1f0000b9  #...............
 80b20 29e4a7f2 21e4a7f2 88098ad2 600040b9  )...!.......`.@.
 80b30 28e4a7f2 070a8ad2 05098ad2 00000032  (..............2
 80b40 600000b9 3f0100b9 27e4a7f2 3f0000b9  `...?...'...?...
 80b50 62008052 25e4a7f2 020100b9 040d8ad2  b..R%...........
 80b60 ff0000b9 24e4a7f2 c6188052 a60000b9  ....$......R....
 80b70 c0218052 800000b9 220000b9 c0035fd6  .!.R...."....._.
 80b80 820a8ad2 22e4a7f2 1f2003d5 410040b9  ....".... ..A.@.
 80b90 c1ff2f36 01088ad2 21e4a7f2 200000b9  ../6....!... ...
 80ba0 c0035fd6 1f2003d5 810a8ad2 21e4a7f2  .._.. ......!...
 80bb0 1f2003d5 200040b9 c0ff0736 00088ad2  . .. .@....6....
 80bc0 41018052 20e4a7f2 000040b9 001c0012  A..R .....@.....
 80bd0 1f340071 0010811a c0035fd6 1f2003d5  .4.q......_.. ..
 80be0 01004039 21020034 820a8ad2 04088ad2  ..@9!..4........
 80bf0 22e4a7f2 24e4a7f2 a5018052 1f2003d5  "...$......R. ..
 80c00 3f280071 40010054 03144038 1f2003d5  ?(.q@..T..@8. ..
 80c10 1f2003d5 410040b9 c1ff2f36 830000b9  . ..A.@.../6....
 80c20 01004039 e1feff35 c0035fd6 1f2003d5  ..@9...5.._.. ..
 80c30 410040b9 c1ff2f36 850000b9 f3ffff17  A.@.../6........
 80c40 820a8ad2 06088ad2 83038052 22e4a7f2  ...........R"...
 80c50 26e4a7f2 1f2003d5 0124c31a 210c0012  &.... ...$..!...
 80c60 25dc0011 24c00011 3f280071 8430851a  %...$...?(.q.0..
 80c70 1f2003d5 410040b9 c1ff2f36 c40000b9  . ..A.@.../6....
 80c80 63100051 7f100031 81feff54 c0035fd6  c..Q...1...T.._.
 80c90 020180d2 831280d2 02e4a7f2 03e4a7f2  ................
 80ca0 c0128052 410040b9 21701412 410000b9  ...RA.@.!p..A...
 80cb0 7f0000b9 1f2003d5 1f2003d5 00040071  ..... ... .....q
 80cc0 c1ffff54 011380d2 0210a052 01e4a7f2  ...T.......R....
 80cd0 c0128052 220000b9 1f2003d5 00040071  ...R".... .....q
 80ce0 c1ffff54 001380d2 810980d2 00e4a7f2  ...T............
 80cf0 01e4a7f2 824296d2 0302a052 1f0000b9  .....B.....R....
 80d00 02e0a7f2 200040b9 00000932 200000b9  .... .@....2 ...
 80d10 430000b9 c0035fd6 020180d2 831280d2  C....._.........
 80d20 02e4a7f2 03e4a7f2 c0128052 410040b9  ...........RA.@.
 80d30 21701412 410000b9 7f0000b9 1f2003d5  !p..A........ ..
 80d40 1f2003d5 00040071 c1ffff54 011380d2  . .....q...T....
 80d50 0210a052 01e4a7f2 c0128052 220000b9  ...R.......R"...
 80d60 1f2003d5 00040071 c1ffff54 001380d2  . .....q...T....
 80d70 810980d2 00e4a7f2 01e4a7f2 824296d2  .............B..
 80d80 0302a052 1f0000b9 02e0a7f2 200040b9  ...R........ .@.
 80d90 00000a32 200000b9 430000b9 c0035fd6  ...2 ...C....._.
 80da0 02e4a7d2 831280d2 03e4a7f2 c0128052  ...............R
 80db0 410040b9 21701112 21001432 410000b9  A.@.!p..!..2A...
 80dc0 7f0000b9 1f2003d5 1f2003d5 00040071  ..... ... .....q
 80dd0 c1ffff54 011380d2 02028052 01e4a7f2  ...T.......R....
 80de0 c0128052 220000b9 1f2003d5 00040071  ...R".... .....q
 80df0 c1ffff54 001380d2 00e4a7f2 1f0000b9  ...T............
 80e00 c0035fd6 1f2003d5 800380d2 01028052  .._.. .........R
 80e10 00e4a7f2 010000b9 c0035fd6 1f2003d5  .........._.. ..
 80e20 000580d2 01028052 00e4a7f2 010000b9  .......R........
 80e30 c0035fd6 1f2003d5 820080d2 831280d2  .._.. ..........
 80e40 02e4a7f2 03e4a7f2 c0128052 410040b9  ...........RA.@.
 80e50 21700812 21000b32 410000b9 7f0000b9  !p..!..2A.......
 80e60 1f2003d5 00040071 c1ffff54 011380d2  . .....q...T....
 80e70 02028052 01e4a7f2 c0128052 220000b9  ...R.......R"...
 80e80 1f2003d5 00040071 c1ffff54 001380d2  . .....q...T....
 80e90 00e4a7f2 1f0000b9 c0035fd6 1f2003d5  .........._.. ..
 80ea0 800380d2 4100a052 00e4a7f2 010000b9  ....A..R........
 80eb0 c0035fd6 1f2003d5 000580d2 4100a052  .._.. ......A..R
 80ec0 00e4a7f2 010000b9 c0035fd6 1f2003d5  .........._.. ..
 80ed0 020180d2 831280d2 02e4a7f2 03e4a7f2  ................
 80ee0 c0128052 410040b9 21700812 21000b32  ...RA.@.!p..!..2
 80ef0 410000b9 7f0000b9 1f2003d5 00040071  A........ .....q
 80f00 c1ffff54 011380d2 02028052 01e4a7f2  ...T.......R....
 80f10 c0128052 220000b9 1f2003d5 00040071  ...R".... .....q
 80f20 c1ffff54 001380d2 00e4a7f2 1f0000b9  ...T............
 80f30 c0035fd6 1f2003d5 800380d2 0100a152  .._.. .........R
 80f40 00e4a7f2 010000b9 c0035fd6 1f2003d5  .........._.. ..
 80f50 000580d2 0100a152 00e4a7f2 010000b9  .......R........
 80f60 c0035fd6 00000000 fd7bbaa9 fd030091  .._......{......
 80f70 f35301a9 f55b02a9 f76303a9 f96b04a9  .S...[...c...k..
 80f80 fb2b00f9 c9feff97 92feff97 41ffff97  .+..........A...
 80f90 62ffff97 02e4a7d2 831280d2 03e4a7f2  b...............
 80fa0 c1128052 400040b9 00701112 00001432  ...R@.@..p.....2
 80fb0 400000b9 7f0000b9 1f2003d5 21040071  @........ ..!..q
 80fc0 c1ffff54 011380d2 02028052 01e4a7f2  ...T.......R....
 80fd0 c0128052 220000b9 1f2003d5 00040071  ...R".... .....q
 80fe0 c1ffff54 001380d2 820080d2 00e4a7f2  ...T............
 80ff0 02e4a7f2 831280d2 c1128052 1f0000b9  ...........R....
 81000 03e4a7f2 400040b9 00700812 00000b32  ....@.@..p.....2
 81010 400000b9 7f0000b9 1f2003d5 21040071  @........ ..!..q
 81020 c1ffff54 011380d2 02028052 01e4a7f2  ...T.......R....
 81030 c0128052 220000b9 1f2003d5 00040071  ...R".... .....q
 81040 c1ffff54 001380d2 020180d2 00e4a7f2  ...T............
 81050 02e4a7f2 831280d2 c1128052 1f0000b9  ...........R....
 81060 03e4a7f2 400040b9 00700812 00000b32  ....@.@..p.....2
 81070 400000b9 7f0000b9 1f2003d5 21040071  @........ ..!..q
 81080 c1ffff54 011380d2 02028052 01e4a7f2  ...T.......R....
 81090 c0128052 220000b9 1f2003d5 00040071  ...R".... .....q
 810a0 c1ffff54 011380d2 17000090 01e4a7f2  ...T............
 810b0 00000090 00600991 960380d2 3f0000b9  .....`......?...
 810c0 15129a52 140580d2 13249452 c5feff97  ...R.....$.R....
 810d0 19000090 21008052 e1a202b9 e003012a  ....!..R.......*
 810e0 1a000090 16e4a7f2 7500a072 39e30991  ........u..r9...
 810f0 14e4a7f2 f300a072 1f040071 20010054  .......r...q ..T
 81100 00040034 e0ff9f52 1f2003d5 00040071  ...4...R. .....q
 81110 c1ffff54 e0a242b9 1f040071 21ffff54  ...T..B....q!..T
 81120 40c30991 18028052 aefeff97 d80200b9  @......R........
 81130 e003132a 5b00a052 3cfeff97 980200b9  ...*[..R<.......
 81140 e003132a 1800a152 38feff97 db0200b9  ...*...R8.......
 81150 e003132a 35feff97 9b0200b9 e003132a  ...*5..........*
 81160 32feff97 d80200b9 e003132a 2ffeff97  2..........*/...
 81170 980200b9 e003132a 2cfeff97 e2ffff17  .......*,.......
 81180 e00319aa 1800a152 96feff97 d80200b9  .......R........
 81190 e003152a 5b00a052 24feff97 980200b9  ...*[..R$.......
 811a0 e003152a 18028052 20feff97 db0200b9  ...*...R .......
 811b0 e003152a 1dfeff97 9b0200b9 e003152a  ...*...........*
 811c0 1afeff97 d80200b9 e003152a 17feff97  ...........*....
 811d0 980200b9 e003152a 14feff97 caffff17  .......*........
 811e0 fd7bbfa9 00000090 00000a91 fd030091  .{..............
 811f0 7cfeff97 004196d2 00e0a7f2 000040b9  |....A........@.
 81200 1f004471 60000054 fd7bc1a8 c0035fd6  ..Dq`..T.{...._.
 81210 000880d2 00e4a7f2 010040b9 3f006071  ..........@.?.`q
 81220 00010054 010040b9 3f005071 e1feff54  ...T..@.?.Pq...T
 81230 02000090 010000b9 5fa002b9 f3ffff17  ........_.......
 81240 010000b9 02000090 20008052 fd7bc1a8  ........ ..R.{..
 81250 40a002b9 c0035fd6                    @....._.        
Contents of section .rodata:
 81258 53746172 74696e67 2070726f 6772616d  Starting program
 81268 2e0a0000 00000000 31203220 33200a00  ........1 2 3 ..
 81278 33203220 31200a00 0a496e73 69646520  3 2 1 ...Inside 
 81288 49525120 65786365 7074696f 6e206861  IRQ exception ha
 81298 6e646c65 723a0a00                    ndler:..        

Disassembly of section .text:

0000000000080000 <_start>:
   80000:	d53800a1 	mrs	x1, mpidr_el1
   80004:	f240043f 	tst	x1, #0x3
   80008:	54000060 	b.eq	80014 <core_zero>  // b.none

000000000008000c <loop>:
   8000c:	d503205f 	wfe
   80010:	17ffffff 	b	8000c <loop>

0000000000080014 <core_zero>:
   80014:	90000001 	adrp	x1, 80000 <_start>
   80018:	91000021 	add	x1, x1, #0x0
   8001c:	d51c4101 	msr	sp_el1, x1
   80020:	d2b00000 	mov	x0, #0x80000000            	// #2147483648
   80024:	b27f0000 	orr	x0, x0, #0x2
   80028:	d51c1100 	msr	hcr_el2, x0
   8002c:	90000002 	adrp	x2, 80000 <_start>
   80030:	91200042 	add	x2, x2, #0x800
   80034:	d518c002 	msr	vbar_el1, x2
   80038:	d2807882 	mov	x2, #0x3c4                 	// #964
   8003c:	d51c4002 	msr	spsr_el2, x2
   80040:	10000062 	adr	x2, 8004c <AtEL1>
   80044:	d51c4022 	msr	elr_el2, x2
   80048:	d69f03e0 	eret

000000000008004c <AtEL1>:
   8004c:	9100003f 	mov	sp, x1
   80050:	b0000001 	adrp	x1, 81000 <main+0x98>
   80054:	910a8021 	add	x1, x1, #0x2a0
   80058:	18004962 	ldr	w2, 80984 <_vectors+0x184>

000000000008005c <top>:
   8005c:	34000082 	cbz	w2, 8006c <endloop>
   80060:	f800843f 	str	xzr, [x1], #8
   80064:	51000442 	sub	w2, w2, #0x1
   80068:	35ffffa2 	cbnz	w2, 8005c <top>

000000000008006c <endloop>:
   8006c:	940003bf 	bl	80f68 <main>
   80070:	17ffffe7 	b	8000c <loop>

0000000000080074 <_synch_handler>:
   80074:	d69f03e0 	eret

0000000000080078 <_IRQ_handler>:
   80078:	a9bf07e0 	stp	x0, x1, [sp, #-16]!
   8007c:	a9bf0fe2 	stp	x2, x3, [sp, #-16]!
   80080:	a9bf17e4 	stp	x4, x5, [sp, #-16]!
   80084:	a9bf1fe6 	stp	x6, x7, [sp, #-16]!
   80088:	a9bf27e8 	stp	x8, x9, [sp, #-16]!
   8008c:	a9bf2fea 	stp	x10, x11, [sp, #-16]!
   80090:	a9bf37ec 	stp	x12, x13, [sp, #-16]!
   80094:	a9bf3fee 	stp	x14, x15, [sp, #-16]!
   80098:	a9bf47f0 	stp	x16, x17, [sp, #-16]!
   8009c:	a9bf4ff2 	stp	x18, x19, [sp, #-16]!
   800a0:	a9bf57f4 	stp	x20, x21, [sp, #-16]!
   800a4:	a9bf5ff6 	stp	x22, x23, [sp, #-16]!
   800a8:	a9bf67f8 	stp	x24, x25, [sp, #-16]!
   800ac:	a9bf6ffa 	stp	x26, x27, [sp, #-16]!
   800b0:	a9bf77fc 	stp	x28, x29, [sp, #-16]!
   800b4:	f81f0ffe 	str	x30, [sp, #-16]!
   800b8:	9400044a 	bl	811e0 <IRQ_handler>
   800bc:	f84107fe 	ldr	x30, [sp], #16
   800c0:	a8c177fc 	ldp	x28, x29, [sp], #16
   800c4:	a8c16ffa 	ldp	x26, x27, [sp], #16
   800c8:	a8c167f8 	ldp	x24, x25, [sp], #16
   800cc:	a8c15ff6 	ldp	x22, x23, [sp], #16
   800d0:	a8c157f4 	ldp	x20, x21, [sp], #16
   800d4:	a8c14ff2 	ldp	x18, x19, [sp], #16
   800d8:	a8c147f0 	ldp	x16, x17, [sp], #16
   800dc:	a8c13fee 	ldp	x14, x15, [sp], #16
   800e0:	a8c137ec 	ldp	x12, x13, [sp], #16
   800e4:	a8c12fea 	ldp	x10, x11, [sp], #16
   800e8:	a8c127e8 	ldp	x8, x9, [sp], #16
   800ec:	a8c11fe6 	ldp	x6, x7, [sp], #16
   800f0:	a8c117e4 	ldp	x4, x5, [sp], #16
   800f4:	a8c10fe2 	ldp	x2, x3, [sp], #16
   800f8:	a8c107e0 	ldp	x0, x1, [sp], #16
   800fc:	d69f03e0 	eret

0000000000080100 <_FIQ_handler>:
   80100:	d69f03e0 	eret

0000000000080104 <_SError_handler>:
   80104:	d69f03e0 	eret
   80108:	d503201f 	nop
   8010c:	d503201f 	nop
   80110:	d503201f 	nop
   80114:	d503201f 	nop
   80118:	d503201f 	nop
   8011c:	d503201f 	nop
   80120:	d503201f 	nop
   80124:	d503201f 	nop
   80128:	d503201f 	nop
   8012c:	d503201f 	nop
   80130:	d503201f 	nop
   80134:	d503201f 	nop
   80138:	d503201f 	nop
   8013c:	d503201f 	nop
   80140:	d503201f 	nop
   80144:	d503201f 	nop
   80148:	d503201f 	nop
   8014c:	d503201f 	nop
   80150:	d503201f 	nop
   80154:	d503201f 	nop
   80158:	d503201f 	nop
   8015c:	d503201f 	nop
   80160:	d503201f 	nop
   80164:	d503201f 	nop
   80168:	d503201f 	nop
   8016c:	d503201f 	nop
   80170:	d503201f 	nop
   80174:	d503201f 	nop
   80178:	d503201f 	nop
   8017c:	d503201f 	nop
   80180:	d503201f 	nop
   80184:	d503201f 	nop
   80188:	d503201f 	nop
   8018c:	d503201f 	nop
   80190:	d503201f 	nop
   80194:	d503201f 	nop
   80198:	d503201f 	nop
   8019c:	d503201f 	nop
   801a0:	d503201f 	nop
   801a4:	d503201f 	nop
   801a8:	d503201f 	nop
   801ac:	d503201f 	nop
   801b0:	d503201f 	nop
   801b4:	d503201f 	nop
   801b8:	d503201f 	nop
   801bc:	d503201f 	nop
   801c0:	d503201f 	nop
   801c4:	d503201f 	nop
   801c8:	d503201f 	nop
   801cc:	d503201f 	nop
   801d0:	d503201f 	nop
   801d4:	d503201f 	nop
   801d8:	d503201f 	nop
   801dc:	d503201f 	nop
   801e0:	d503201f 	nop
   801e4:	d503201f 	nop
   801e8:	d503201f 	nop
   801ec:	d503201f 	nop
   801f0:	d503201f 	nop
   801f4:	d503201f 	nop
   801f8:	d503201f 	nop
   801fc:	d503201f 	nop
   80200:	d503201f 	nop
   80204:	d503201f 	nop
   80208:	d503201f 	nop
   8020c:	d503201f 	nop
   80210:	d503201f 	nop
   80214:	d503201f 	nop
   80218:	d503201f 	nop
   8021c:	d503201f 	nop
   80220:	d503201f 	nop
   80224:	d503201f 	nop
   80228:	d503201f 	nop
   8022c:	d503201f 	nop
   80230:	d503201f 	nop
   80234:	d503201f 	nop
   80238:	d503201f 	nop
   8023c:	d503201f 	nop
   80240:	d503201f 	nop
   80244:	d503201f 	nop
   80248:	d503201f 	nop
   8024c:	d503201f 	nop
   80250:	d503201f 	nop
   80254:	d503201f 	nop
   80258:	d503201f 	nop
   8025c:	d503201f 	nop
   80260:	d503201f 	nop
   80264:	d503201f 	nop
   80268:	d503201f 	nop
   8026c:	d503201f 	nop
   80270:	d503201f 	nop
   80274:	d503201f 	nop
   80278:	d503201f 	nop
   8027c:	d503201f 	nop
   80280:	d503201f 	nop
   80284:	d503201f 	nop
   80288:	d503201f 	nop
   8028c:	d503201f 	nop
   80290:	d503201f 	nop
   80294:	d503201f 	nop
   80298:	d503201f 	nop
   8029c:	d503201f 	nop
   802a0:	d503201f 	nop
   802a4:	d503201f 	nop
   802a8:	d503201f 	nop
   802ac:	d503201f 	nop
   802b0:	d503201f 	nop
   802b4:	d503201f 	nop
   802b8:	d503201f 	nop
   802bc:	d503201f 	nop
   802c0:	d503201f 	nop
   802c4:	d503201f 	nop
   802c8:	d503201f 	nop
   802cc:	d503201f 	nop
   802d0:	d503201f 	nop
   802d4:	d503201f 	nop
   802d8:	d503201f 	nop
   802dc:	d503201f 	nop
   802e0:	d503201f 	nop
   802e4:	d503201f 	nop
   802e8:	d503201f 	nop
   802ec:	d503201f 	nop
   802f0:	d503201f 	nop
   802f4:	d503201f 	nop
   802f8:	d503201f 	nop
   802fc:	d503201f 	nop
   80300:	d503201f 	nop
   80304:	d503201f 	nop
   80308:	d503201f 	nop
   8030c:	d503201f 	nop
   80310:	d503201f 	nop
   80314:	d503201f 	nop
   80318:	d503201f 	nop
   8031c:	d503201f 	nop
   80320:	d503201f 	nop
   80324:	d503201f 	nop
   80328:	d503201f 	nop
   8032c:	d503201f 	nop
   80330:	d503201f 	nop
   80334:	d503201f 	nop
   80338:	d503201f 	nop
   8033c:	d503201f 	nop
   80340:	d503201f 	nop
   80344:	d503201f 	nop
   80348:	d503201f 	nop
   8034c:	d503201f 	nop
   80350:	d503201f 	nop
   80354:	d503201f 	nop
   80358:	d503201f 	nop
   8035c:	d503201f 	nop
   80360:	d503201f 	nop
   80364:	d503201f 	nop
   80368:	d503201f 	nop
   8036c:	d503201f 	nop
   80370:	d503201f 	nop
   80374:	d503201f 	nop
   80378:	d503201f 	nop
   8037c:	d503201f 	nop
   80380:	d503201f 	nop
   80384:	d503201f 	nop
   80388:	d503201f 	nop
   8038c:	d503201f 	nop
   80390:	d503201f 	nop
   80394:	d503201f 	nop
   80398:	d503201f 	nop
   8039c:	d503201f 	nop
   803a0:	d503201f 	nop
   803a4:	d503201f 	nop
   803a8:	d503201f 	nop
   803ac:	d503201f 	nop
   803b0:	d503201f 	nop
   803b4:	d503201f 	nop
   803b8:	d503201f 	nop
   803bc:	d503201f 	nop
   803c0:	d503201f 	nop
   803c4:	d503201f 	nop
   803c8:	d503201f 	nop
   803cc:	d503201f 	nop
   803d0:	d503201f 	nop
   803d4:	d503201f 	nop
   803d8:	d503201f 	nop
   803dc:	d503201f 	nop
   803e0:	d503201f 	nop
   803e4:	d503201f 	nop
   803e8:	d503201f 	nop
   803ec:	d503201f 	nop
   803f0:	d503201f 	nop
   803f4:	d503201f 	nop
   803f8:	d503201f 	nop
   803fc:	d503201f 	nop
   80400:	d503201f 	nop
   80404:	d503201f 	nop
   80408:	d503201f 	nop
   8040c:	d503201f 	nop
   80410:	d503201f 	nop
   80414:	d503201f 	nop
   80418:	d503201f 	nop
   8041c:	d503201f 	nop
   80420:	d503201f 	nop
   80424:	d503201f 	nop
   80428:	d503201f 	nop
   8042c:	d503201f 	nop
   80430:	d503201f 	nop
   80434:	d503201f 	nop
   80438:	d503201f 	nop
   8043c:	d503201f 	nop
   80440:	d503201f 	nop
   80444:	d503201f 	nop
   80448:	d503201f 	nop
   8044c:	d503201f 	nop
   80450:	d503201f 	nop
   80454:	d503201f 	nop
   80458:	d503201f 	nop
   8045c:	d503201f 	nop
   80460:	d503201f 	nop
   80464:	d503201f 	nop
   80468:	d503201f 	nop
   8046c:	d503201f 	nop
   80470:	d503201f 	nop
   80474:	d503201f 	nop
   80478:	d503201f 	nop
   8047c:	d503201f 	nop
   80480:	d503201f 	nop
   80484:	d503201f 	nop
   80488:	d503201f 	nop
   8048c:	d503201f 	nop
   80490:	d503201f 	nop
   80494:	d503201f 	nop
   80498:	d503201f 	nop
   8049c:	d503201f 	nop
   804a0:	d503201f 	nop
   804a4:	d503201f 	nop
   804a8:	d503201f 	nop
   804ac:	d503201f 	nop
   804b0:	d503201f 	nop
   804b4:	d503201f 	nop
   804b8:	d503201f 	nop
   804bc:	d503201f 	nop
   804c0:	d503201f 	nop
   804c4:	d503201f 	nop
   804c8:	d503201f 	nop
   804cc:	d503201f 	nop
   804d0:	d503201f 	nop
   804d4:	d503201f 	nop
   804d8:	d503201f 	nop
   804dc:	d503201f 	nop
   804e0:	d503201f 	nop
   804e4:	d503201f 	nop
   804e8:	d503201f 	nop
   804ec:	d503201f 	nop
   804f0:	d503201f 	nop
   804f4:	d503201f 	nop
   804f8:	d503201f 	nop
   804fc:	d503201f 	nop
   80500:	d503201f 	nop
   80504:	d503201f 	nop
   80508:	d503201f 	nop
   8050c:	d503201f 	nop
   80510:	d503201f 	nop
   80514:	d503201f 	nop
   80518:	d503201f 	nop
   8051c:	d503201f 	nop
   80520:	d503201f 	nop
   80524:	d503201f 	nop
   80528:	d503201f 	nop
   8052c:	d503201f 	nop
   80530:	d503201f 	nop
   80534:	d503201f 	nop
   80538:	d503201f 	nop
   8053c:	d503201f 	nop
   80540:	d503201f 	nop
   80544:	d503201f 	nop
   80548:	d503201f 	nop
   8054c:	d503201f 	nop
   80550:	d503201f 	nop
   80554:	d503201f 	nop
   80558:	d503201f 	nop
   8055c:	d503201f 	nop
   80560:	d503201f 	nop
   80564:	d503201f 	nop
   80568:	d503201f 	nop
   8056c:	d503201f 	nop
   80570:	d503201f 	nop
   80574:	d503201f 	nop
   80578:	d503201f 	nop
   8057c:	d503201f 	nop
   80580:	d503201f 	nop
   80584:	d503201f 	nop
   80588:	d503201f 	nop
   8058c:	d503201f 	nop
   80590:	d503201f 	nop
   80594:	d503201f 	nop
   80598:	d503201f 	nop
   8059c:	d503201f 	nop
   805a0:	d503201f 	nop
   805a4:	d503201f 	nop
   805a8:	d503201f 	nop
   805ac:	d503201f 	nop
   805b0:	d503201f 	nop
   805b4:	d503201f 	nop
   805b8:	d503201f 	nop
   805bc:	d503201f 	nop
   805c0:	d503201f 	nop
   805c4:	d503201f 	nop
   805c8:	d503201f 	nop
   805cc:	d503201f 	nop
   805d0:	d503201f 	nop
   805d4:	d503201f 	nop
   805d8:	d503201f 	nop
   805dc:	d503201f 	nop
   805e0:	d503201f 	nop
   805e4:	d503201f 	nop
   805e8:	d503201f 	nop
   805ec:	d503201f 	nop
   805f0:	d503201f 	nop
   805f4:	d503201f 	nop
   805f8:	d503201f 	nop
   805fc:	d503201f 	nop
   80600:	d503201f 	nop
   80604:	d503201f 	nop
   80608:	d503201f 	nop
   8060c:	d503201f 	nop
   80610:	d503201f 	nop
   80614:	d503201f 	nop
   80618:	d503201f 	nop
   8061c:	d503201f 	nop
   80620:	d503201f 	nop
   80624:	d503201f 	nop
   80628:	d503201f 	nop
   8062c:	d503201f 	nop
   80630:	d503201f 	nop
   80634:	d503201f 	nop
   80638:	d503201f 	nop
   8063c:	d503201f 	nop
   80640:	d503201f 	nop
   80644:	d503201f 	nop
   80648:	d503201f 	nop
   8064c:	d503201f 	nop
   80650:	d503201f 	nop
   80654:	d503201f 	nop
   80658:	d503201f 	nop
   8065c:	d503201f 	nop
   80660:	d503201f 	nop
   80664:	d503201f 	nop
   80668:	d503201f 	nop
   8066c:	d503201f 	nop
   80670:	d503201f 	nop
   80674:	d503201f 	nop
   80678:	d503201f 	nop
   8067c:	d503201f 	nop
   80680:	d503201f 	nop
   80684:	d503201f 	nop
   80688:	d503201f 	nop
   8068c:	d503201f 	nop
   80690:	d503201f 	nop
   80694:	d503201f 	nop
   80698:	d503201f 	nop
   8069c:	d503201f 	nop
   806a0:	d503201f 	nop
   806a4:	d503201f 	nop
   806a8:	d503201f 	nop
   806ac:	d503201f 	nop
   806b0:	d503201f 	nop
   806b4:	d503201f 	nop
   806b8:	d503201f 	nop
   806bc:	d503201f 	nop
   806c0:	d503201f 	nop
   806c4:	d503201f 	nop
   806c8:	d503201f 	nop
   806cc:	d503201f 	nop
   806d0:	d503201f 	nop
   806d4:	d503201f 	nop
   806d8:	d503201f 	nop
   806dc:	d503201f 	nop
   806e0:	d503201f 	nop
   806e4:	d503201f 	nop
   806e8:	d503201f 	nop
   806ec:	d503201f 	nop
   806f0:	d503201f 	nop
   806f4:	d503201f 	nop
   806f8:	d503201f 	nop
   806fc:	d503201f 	nop
   80700:	d503201f 	nop
   80704:	d503201f 	nop
   80708:	d503201f 	nop
   8070c:	d503201f 	nop
   80710:	d503201f 	nop
   80714:	d503201f 	nop
   80718:	d503201f 	nop
   8071c:	d503201f 	nop
   80720:	d503201f 	nop
   80724:	d503201f 	nop
   80728:	d503201f 	nop
   8072c:	d503201f 	nop
   80730:	d503201f 	nop
   80734:	d503201f 	nop
   80738:	d503201f 	nop
   8073c:	d503201f 	nop
   80740:	d503201f 	nop
   80744:	d503201f 	nop
   80748:	d503201f 	nop
   8074c:	d503201f 	nop
   80750:	d503201f 	nop
   80754:	d503201f 	nop
   80758:	d503201f 	nop
   8075c:	d503201f 	nop
   80760:	d503201f 	nop
   80764:	d503201f 	nop
   80768:	d503201f 	nop
   8076c:	d503201f 	nop
   80770:	d503201f 	nop
   80774:	d503201f 	nop
   80778:	d503201f 	nop
   8077c:	d503201f 	nop
   80780:	d503201f 	nop
   80784:	d503201f 	nop
   80788:	d503201f 	nop
   8078c:	d503201f 	nop
   80790:	d503201f 	nop
   80794:	d503201f 	nop
   80798:	d503201f 	nop
   8079c:	d503201f 	nop
   807a0:	d503201f 	nop
   807a4:	d503201f 	nop
   807a8:	d503201f 	nop
   807ac:	d503201f 	nop
   807b0:	d503201f 	nop
   807b4:	d503201f 	nop
   807b8:	d503201f 	nop
   807bc:	d503201f 	nop
   807c0:	d503201f 	nop
   807c4:	d503201f 	nop
   807c8:	d503201f 	nop
   807cc:	d503201f 	nop
   807d0:	d503201f 	nop
   807d4:	d503201f 	nop
   807d8:	d503201f 	nop
   807dc:	d503201f 	nop
   807e0:	d503201f 	nop
   807e4:	d503201f 	nop
   807e8:	d503201f 	nop
   807ec:	d503201f 	nop
   807f0:	d503201f 	nop
   807f4:	d503201f 	nop
   807f8:	d503201f 	nop
   807fc:	d503201f 	nop

0000000000080800 <_vectors>:
   80800:	17fffe1d 	b	80074 <_synch_handler>
   80804:	d503201f 	nop
   80808:	d503201f 	nop
   8080c:	d503201f 	nop
   80810:	d503201f 	nop
   80814:	d503201f 	nop
   80818:	d503201f 	nop
   8081c:	d503201f 	nop
   80820:	d503201f 	nop
   80824:	d503201f 	nop
   80828:	d503201f 	nop
   8082c:	d503201f 	nop
   80830:	d503201f 	nop
   80834:	d503201f 	nop
   80838:	d503201f 	nop
   8083c:	d503201f 	nop
   80840:	d503201f 	nop
   80844:	d503201f 	nop
   80848:	d503201f 	nop
   8084c:	d503201f 	nop
   80850:	d503201f 	nop
   80854:	d503201f 	nop
   80858:	d503201f 	nop
   8085c:	d503201f 	nop
   80860:	d503201f 	nop
   80864:	d503201f 	nop
   80868:	d503201f 	nop
   8086c:	d503201f 	nop
   80870:	d503201f 	nop
   80874:	d503201f 	nop
   80878:	d503201f 	nop
   8087c:	d503201f 	nop
   80880:	17fffdfe 	b	80078 <_IRQ_handler>
   80884:	d503201f 	nop
   80888:	d503201f 	nop
   8088c:	d503201f 	nop
   80890:	d503201f 	nop
   80894:	d503201f 	nop
   80898:	d503201f 	nop
   8089c:	d503201f 	nop
   808a0:	d503201f 	nop
   808a4:	d503201f 	nop
   808a8:	d503201f 	nop
   808ac:	d503201f 	nop
   808b0:	d503201f 	nop
   808b4:	d503201f 	nop
   808b8:	d503201f 	nop
   808bc:	d503201f 	nop
   808c0:	d503201f 	nop
   808c4:	d503201f 	nop
   808c8:	d503201f 	nop
   808cc:	d503201f 	nop
   808d0:	d503201f 	nop
   808d4:	d503201f 	nop
   808d8:	d503201f 	nop
   808dc:	d503201f 	nop
   808e0:	d503201f 	nop
   808e4:	d503201f 	nop
   808e8:	d503201f 	nop
   808ec:	d503201f 	nop
   808f0:	d503201f 	nop
   808f4:	d503201f 	nop
   808f8:	d503201f 	nop
   808fc:	d503201f 	nop
   80900:	17fffe00 	b	80100 <_FIQ_handler>
   80904:	d503201f 	nop
   80908:	d503201f 	nop
   8090c:	d503201f 	nop
   80910:	d503201f 	nop
   80914:	d503201f 	nop
   80918:	d503201f 	nop
   8091c:	d503201f 	nop
   80920:	d503201f 	nop
   80924:	d503201f 	nop
   80928:	d503201f 	nop
   8092c:	d503201f 	nop
   80930:	d503201f 	nop
   80934:	d503201f 	nop
   80938:	d503201f 	nop
   8093c:	d503201f 	nop
   80940:	d503201f 	nop
   80944:	d503201f 	nop
   80948:	d503201f 	nop
   8094c:	d503201f 	nop
   80950:	d503201f 	nop
   80954:	d503201f 	nop
   80958:	d503201f 	nop
   8095c:	d503201f 	nop
   80960:	d503201f 	nop
   80964:	d503201f 	nop
   80968:	d503201f 	nop
   8096c:	d503201f 	nop
   80970:	d503201f 	nop
   80974:	d503201f 	nop
   80978:	d503201f 	nop
   8097c:	d503201f 	nop
   80980:	17fffde1 	b	80104 <_SError_handler>
   80984:	00000000 	.word	0x00000000

0000000000080988 <getCurrentEL>:
   80988:	d5384240 	mrs	x0, currentel
   8098c:	d342fc00 	lsr	x0, x0, #2
   80990:	92400400 	and	x0, x0, #0x3
   80994:	d65f03c0 	ret

0000000000080998 <getSPSel>:
   80998:	d5384200 	mrs	x0, spsel
   8099c:	d65f03c0 	ret

00000000000809a0 <getNZCV>:
   809a0:	d53b4200 	mrs	x0, nzcv
   809a4:	d35cfc00 	lsr	x0, x0, #28
   809a8:	92400c00 	and	x0, x0, #0xf
   809ac:	d65f03c0 	ret

00000000000809b0 <getDAIF>:
   809b0:	d53b4220 	mrs	x0, daif
   809b4:	d346fc00 	lsr	x0, x0, #6
   809b8:	92400c00 	and	x0, x0, #0xf
   809bc:	d65f03c0 	ret

00000000000809c0 <enableDAIF>:
   809c0:	d5034fff 	msr	daifclr, #0xf
   809c4:	d65f03c0 	ret

00000000000809c8 <disableDAIF>:
   809c8:	d5034fdf 	msr	daifset, #0xf
   809cc:	d65f03c0 	ret

00000000000809d0 <enableIRQ>:
   809d0:	d50342ff 	msr	daifclr, #0x2
   809d4:	d65f03c0 	ret

00000000000809d8 <disableIRQ>:
   809d8:	d50342df 	msr	daifset, #0x2
   809dc:	d65f03c0 	ret

00000000000809e0 <enableFIQ>:
   809e0:	d50341ff 	msr	daifclr, #0x1
   809e4:	d65f03c0 	ret

00000000000809e8 <disableFIQ>:
   809e8:	d50341df 	msr	daifset, #0x1
   809ec:	d65f03c0 	ret

00000000000809f0 <get_timer_counter>:
   809f0:	d2860102 	mov	x2, #0x3008                	// #12296
   809f4:	d2860083 	mov	x3, #0x3004                	// #12292
   809f8:	f2a7e002 	movk	x2, #0x3f00, lsl #16
   809fc:	f2a7e003 	movk	x3, #0x3f00, lsl #16
   80a00:	b9400040 	ldr	w0, [x2]
   80a04:	b9400061 	ldr	w1, [x3]
   80a08:	b9400044 	ldr	w4, [x2]
   80a0c:	6b00009f 	cmp	w4, w0
   80a10:	54000060 	b.eq	80a1c <get_timer_counter+0x2c>  // b.none
   80a14:	b9400040 	ldr	w0, [x2]
   80a18:	b9400061 	ldr	w1, [x3]
   80a1c:	2a0103e1 	mov	w1, w1
   80a20:	aa008020 	orr	x0, x1, x0, lsl #32
   80a24:	d65f03c0 	ret

0000000000080a28 <microsecond_delay>:
   80a28:	d2860103 	mov	x3, #0x3008                	// #12296
   80a2c:	d2860084 	mov	x4, #0x3004                	// #12292
   80a30:	f2a7e003 	movk	x3, #0x3f00, lsl #16
   80a34:	f2a7e004 	movk	x4, #0x3f00, lsl #16
   80a38:	b9400065 	ldr	w5, [x3]
   80a3c:	b9400082 	ldr	w2, [x4]
   80a40:	b9400061 	ldr	w1, [x3]
   80a44:	6b0100bf 	cmp	w5, w1
   80a48:	54000060 	b.eq	80a54 <microsecond_delay+0x2c>  // b.none
   80a4c:	b9400061 	ldr	w1, [x3]
   80a50:	b9400082 	ldr	w2, [x4]
   80a54:	2a0203e2 	mov	w2, w2
   80a58:	aa018041 	orr	x1, x2, x1, lsl #32
   80a5c:	b4000241 	cbz	x1, 80aa4 <microsecond_delay+0x7c>
   80a60:	d2860103 	mov	x3, #0x3008                	// #12296
   80a64:	d2860085 	mov	x5, #0x3004                	// #12292
   80a68:	8b204020 	add	x0, x1, w0, uxtw
   80a6c:	f2a7e003 	movk	x3, #0x3f00, lsl #16
   80a70:	f2a7e005 	movk	x5, #0x3f00, lsl #16
   80a74:	d503201f 	nop
   80a78:	b9400064 	ldr	w4, [x3]
   80a7c:	b94000a2 	ldr	w2, [x5]
   80a80:	b9400061 	ldr	w1, [x3]
   80a84:	6b01009f 	cmp	w4, w1
   80a88:	54000060 	b.eq	80a94 <microsecond_delay+0x6c>  // b.none
   80a8c:	b9400061 	ldr	w1, [x3]
   80a90:	b94000a2 	ldr	w2, [x5]
   80a94:	2a0203e2 	mov	w2, w2
   80a98:	aa018041 	orr	x1, x2, x1, lsl #32
   80a9c:	eb01001f 	cmp	x0, x1
   80aa0:	54fffec8 	b.hi	80a78 <microsecond_delay+0x50>  // b.pmore
   80aa4:	d65f03c0 	ret

0000000000080aa8 <uart_init>:
   80aa8:	d2800082 	mov	x2, #0x4                   	// #4
   80aac:	d2801283 	mov	x3, #0x94                  	// #148
   80ab0:	f2a7e402 	movk	x2, #0x3f20, lsl #16
   80ab4:	f2a7e403 	movk	x3, #0x3f20, lsl #16
   80ab8:	52840004 	mov	w4, #0x2000                	// #8192
   80abc:	528012c0 	mov	w0, #0x96                  	// #150
   80ac0:	b9400041 	ldr	w1, [x2]
   80ac4:	72a00024 	movk	w4, #0x1, lsl #16
   80ac8:	120e6421 	and	w1, w1, #0xfffc0fff
   80acc:	2a040021 	orr	w1, w1, w4
   80ad0:	b9000041 	str	w1, [x2]
   80ad4:	b900007f 	str	wzr, [x3]
   80ad8:	d503201f 	nop
   80adc:	71000400 	subs	w0, w0, #0x1
   80ae0:	54ffffc1 	b.ne	80ad8 <uart_init+0x30>  // b.any
   80ae4:	d2801301 	mov	x1, #0x98                  	// #152
   80ae8:	52980002 	mov	w2, #0xc000                	// #49152
   80aec:	f2a7e401 	movk	x1, #0x3f20, lsl #16
   80af0:	528012c0 	mov	w0, #0x96                  	// #150
   80af4:	b9000022 	str	w2, [x1]
   80af8:	d503201f 	nop
   80afc:	71000400 	subs	w0, w0, #0x1
   80b00:	54ffffc1 	b.ne	80af8 <uart_init+0x50>  // b.any
   80b04:	d2801300 	mov	x0, #0x98                  	// #152
   80b08:	d28a0083 	mov	x3, #0x5004                	// #20484
   80b0c:	f2a7e400 	movk	x0, #0x3f20, lsl #16
   80b10:	f2a7e423 	movk	x3, #0x3f21, lsl #16
   80b14:	d28a0889 	mov	x9, #0x5044                	// #20548
   80b18:	d28a0c01 	mov	x1, #0x5060                	// #20576
   80b1c:	b900001f 	str	wzr, [x0]
   80b20:	f2a7e429 	movk	x9, #0x3f21, lsl #16
   80b24:	f2a7e421 	movk	x1, #0x3f21, lsl #16
   80b28:	d28a0988 	mov	x8, #0x504c                	// #20556
   80b2c:	b9400060 	ldr	w0, [x3]
   80b30:	f2a7e428 	movk	x8, #0x3f21, lsl #16
   80b34:	d28a0a07 	mov	x7, #0x5050                	// #20560
   80b38:	d28a0905 	mov	x5, #0x5048                	// #20552
   80b3c:	32000000 	orr	w0, w0, #0x1
   80b40:	b9000060 	str	w0, [x3]
   80b44:	b900013f 	str	wzr, [x9]
   80b48:	f2a7e427 	movk	x7, #0x3f21, lsl #16
   80b4c:	b900003f 	str	wzr, [x1]
   80b50:	52800062 	mov	w2, #0x3                   	// #3
   80b54:	f2a7e425 	movk	x5, #0x3f21, lsl #16
   80b58:	b9000102 	str	w2, [x8]
   80b5c:	d28a0d04 	mov	x4, #0x5068                	// #20584
   80b60:	b90000ff 	str	wzr, [x7]
   80b64:	f2a7e424 	movk	x4, #0x3f21, lsl #16
   80b68:	528018c6 	mov	w6, #0xc6                  	// #198
   80b6c:	b90000a6 	str	w6, [x5]
   80b70:	528021c0 	mov	w0, #0x10e                 	// #270
   80b74:	b9000080 	str	w0, [x4]
   80b78:	b9000022 	str	w2, [x1]
   80b7c:	d65f03c0 	ret

0000000000080b80 <uart_putc>:
   80b80:	d28a0a82 	mov	x2, #0x5054                	// #20564
   80b84:	f2a7e422 	movk	x2, #0x3f21, lsl #16
   80b88:	d503201f 	nop
   80b8c:	b9400041 	ldr	w1, [x2]
   80b90:	362fffc1 	tbz	w1, #5, 80b88 <uart_putc+0x8>
   80b94:	d28a0801 	mov	x1, #0x5040                	// #20544
   80b98:	f2a7e421 	movk	x1, #0x3f21, lsl #16
   80b9c:	b9000020 	str	w0, [x1]
   80ba0:	d65f03c0 	ret
   80ba4:	d503201f 	nop

0000000000080ba8 <uart_getc>:
   80ba8:	d28a0a81 	mov	x1, #0x5054                	// #20564
   80bac:	f2a7e421 	movk	x1, #0x3f21, lsl #16
   80bb0:	d503201f 	nop
   80bb4:	b9400020 	ldr	w0, [x1]
   80bb8:	3607ffc0 	tbz	w0, #0, 80bb0 <uart_getc+0x8>
   80bbc:	d28a0800 	mov	x0, #0x5040                	// #20544
   80bc0:	52800141 	mov	w1, #0xa                   	// #10
   80bc4:	f2a7e420 	movk	x0, #0x3f21, lsl #16
   80bc8:	b9400000 	ldr	w0, [x0]
   80bcc:	12001c00 	and	w0, w0, #0xff
   80bd0:	7100341f 	cmp	w0, #0xd
   80bd4:	1a811000 	csel	w0, w0, w1, ne  // ne = any
   80bd8:	d65f03c0 	ret
   80bdc:	d503201f 	nop

0000000000080be0 <uart_puts>:
   80be0:	39400001 	ldrb	w1, [x0]
   80be4:	34000221 	cbz	w1, 80c28 <uart_puts+0x48>
   80be8:	d28a0a82 	mov	x2, #0x5054                	// #20564
   80bec:	d28a0804 	mov	x4, #0x5040                	// #20544
   80bf0:	f2a7e422 	movk	x2, #0x3f21, lsl #16
   80bf4:	f2a7e424 	movk	x4, #0x3f21, lsl #16
   80bf8:	528001a5 	mov	w5, #0xd                   	// #13
   80bfc:	d503201f 	nop
   80c00:	7100283f 	cmp	w1, #0xa
   80c04:	54000140 	b.eq	80c2c <uart_puts+0x4c>  // b.none
   80c08:	38401403 	ldrb	w3, [x0], #1
   80c0c:	d503201f 	nop
   80c10:	d503201f 	nop
   80c14:	b9400041 	ldr	w1, [x2]
   80c18:	362fffc1 	tbz	w1, #5, 80c10 <uart_puts+0x30>
   80c1c:	b9000083 	str	w3, [x4]
   80c20:	39400001 	ldrb	w1, [x0]
   80c24:	35fffee1 	cbnz	w1, 80c00 <uart_puts+0x20>
   80c28:	d65f03c0 	ret
   80c2c:	d503201f 	nop
   80c30:	b9400041 	ldr	w1, [x2]
   80c34:	362fffc1 	tbz	w1, #5, 80c2c <uart_puts+0x4c>
   80c38:	b9000085 	str	w5, [x4]
   80c3c:	17fffff3 	b	80c08 <uart_puts+0x28>

0000000000080c40 <uart_puthex>:
   80c40:	d28a0a82 	mov	x2, #0x5054                	// #20564
   80c44:	d28a0806 	mov	x6, #0x5040                	// #20544
   80c48:	52800383 	mov	w3, #0x1c                  	// #28
   80c4c:	f2a7e422 	movk	x2, #0x3f21, lsl #16
   80c50:	f2a7e426 	movk	x6, #0x3f21, lsl #16
   80c54:	d503201f 	nop
   80c58:	1ac32401 	lsr	w1, w0, w3
   80c5c:	12000c21 	and	w1, w1, #0xf
   80c60:	1100dc25 	add	w5, w1, #0x37
   80c64:	1100c024 	add	w4, w1, #0x30
   80c68:	7100283f 	cmp	w1, #0xa
   80c6c:	1a853084 	csel	w4, w4, w5, cc  // cc = lo, ul, last
   80c70:	d503201f 	nop
   80c74:	b9400041 	ldr	w1, [x2]
   80c78:	362fffc1 	tbz	w1, #5, 80c70 <uart_puthex+0x30>
   80c7c:	b90000c4 	str	w4, [x6]
   80c80:	51001063 	sub	w3, w3, #0x4
   80c84:	3100107f 	cmn	w3, #0x4
   80c88:	54fffe81 	b.ne	80c58 <uart_puthex+0x18>  // b.any
   80c8c:	d65f03c0 	ret

0000000000080c90 <init_GPIO23_to_risingEdgeInterrupt>:
   80c90:	d2800102 	mov	x2, #0x8                   	// #8
   80c94:	d2801283 	mov	x3, #0x94                  	// #148
   80c98:	f2a7e402 	movk	x2, #0x3f20, lsl #16
   80c9c:	f2a7e403 	movk	x3, #0x3f20, lsl #16
   80ca0:	528012c0 	mov	w0, #0x96                  	// #150
   80ca4:	b9400041 	ldr	w1, [x2]
   80ca8:	12147021 	and	w1, w1, #0xfffff1ff
   80cac:	b9000041 	str	w1, [x2]
   80cb0:	b900007f 	str	wzr, [x3]
   80cb4:	d503201f 	nop
   80cb8:	d503201f 	nop
   80cbc:	71000400 	subs	w0, w0, #0x1
   80cc0:	54ffffc1 	b.ne	80cb8 <init_GPIO23_to_risingEdgeInterrupt+0x28>  // b.any
   80cc4:	d2801301 	mov	x1, #0x98                  	// #152
   80cc8:	52a01002 	mov	w2, #0x800000              	// #8388608
   80ccc:	f2a7e401 	movk	x1, #0x3f20, lsl #16
   80cd0:	528012c0 	mov	w0, #0x96                  	// #150
   80cd4:	b9000022 	str	w2, [x1]
   80cd8:	d503201f 	nop
   80cdc:	71000400 	subs	w0, w0, #0x1
   80ce0:	54ffffc1 	b.ne	80cd8 <init_GPIO23_to_risingEdgeInterrupt+0x48>  // b.any
   80ce4:	d2801300 	mov	x0, #0x98                  	// #152
   80ce8:	d2800981 	mov	x1, #0x4c                  	// #76
   80cec:	f2a7e400 	movk	x0, #0x3f20, lsl #16
   80cf0:	f2a7e401 	movk	x1, #0x3f20, lsl #16
   80cf4:	d2964282 	mov	x2, #0xb214                	// #45588
   80cf8:	52a00203 	mov	w3, #0x100000              	// #1048576
   80cfc:	b900001f 	str	wzr, [x0]
   80d00:	f2a7e002 	movk	x2, #0x3f00, lsl #16
   80d04:	b9400020 	ldr	w0, [x1]
   80d08:	32090000 	orr	w0, w0, #0x800000
   80d0c:	b9000020 	str	w0, [x1]
   80d10:	b9000043 	str	w3, [x2]
   80d14:	d65f03c0 	ret

0000000000080d18 <init_GPIO22_to_risingEdgeInterrupt>:
   80d18:	d2800102 	mov	x2, #0x8                   	// #8
   80d1c:	d2801283 	mov	x3, #0x94                  	// #148
   80d20:	f2a7e402 	movk	x2, #0x3f20, lsl #16
   80d24:	f2a7e403 	movk	x3, #0x3f20, lsl #16
   80d28:	528012c0 	mov	w0, #0x96                  	// #150
   80d2c:	b9400041 	ldr	w1, [x2]
   80d30:	12147021 	and	w1, w1, #0xfffff1ff
   80d34:	b9000041 	str	w1, [x2]
   80d38:	b900007f 	str	wzr, [x3]
   80d3c:	d503201f 	nop
   80d40:	d503201f 	nop
   80d44:	71000400 	subs	w0, w0, #0x1
   80d48:	54ffffc1 	b.ne	80d40 <init_GPIO22_to_risingEdgeInterrupt+0x28>  // b.any
   80d4c:	d2801301 	mov	x1, #0x98                  	// #152
   80d50:	52a01002 	mov	w2, #0x800000              	// #8388608
   80d54:	f2a7e401 	movk	x1, #0x3f20, lsl #16
   80d58:	528012c0 	mov	w0, #0x96                  	// #150
   80d5c:	b9000022 	str	w2, [x1]
   80d60:	d503201f 	nop
   80d64:	71000400 	subs	w0, w0, #0x1
   80d68:	54ffffc1 	b.ne	80d60 <init_GPIO22_to_risingEdgeInterrupt+0x48>  // b.any
   80d6c:	d2801300 	mov	x0, #0x98                  	// #152
   80d70:	d2800981 	mov	x1, #0x4c                  	// #76
   80d74:	f2a7e400 	movk	x0, #0x3f20, lsl #16
   80d78:	f2a7e401 	movk	x1, #0x3f20, lsl #16
   80d7c:	d2964282 	mov	x2, #0xb214                	// #45588
   80d80:	52a00203 	mov	w3, #0x100000              	// #1048576
   80d84:	b900001f 	str	wzr, [x0]
   80d88:	f2a7e002 	movk	x2, #0x3f00, lsl #16
   80d8c:	b9400020 	ldr	w0, [x1]
   80d90:	320a0000 	orr	w0, w0, #0x400000
   80d94:	b9000020 	str	w0, [x1]
   80d98:	b9000043 	str	w3, [x2]
   80d9c:	d65f03c0 	ret

0000000000080da0 <init_GPIO4_to_output>:
   80da0:	d2a7e402 	mov	x2, #0x3f200000            	// #1059061760
   80da4:	d2801283 	mov	x3, #0x94                  	// #148
   80da8:	f2a7e403 	movk	x3, #0x3f20, lsl #16
   80dac:	528012c0 	mov	w0, #0x96                  	// #150
   80db0:	b9400041 	ldr	w1, [x2]
   80db4:	12117021 	and	w1, w1, #0xffff8fff
   80db8:	32140021 	orr	w1, w1, #0x1000
   80dbc:	b9000041 	str	w1, [x2]
   80dc0:	b900007f 	str	wzr, [x3]
   80dc4:	d503201f 	nop
   80dc8:	d503201f 	nop
   80dcc:	71000400 	subs	w0, w0, #0x1
   80dd0:	54ffffc1 	b.ne	80dc8 <init_GPIO4_to_output+0x28>  // b.any
   80dd4:	d2801301 	mov	x1, #0x98                  	// #152
   80dd8:	52800202 	mov	w2, #0x10                  	// #16
   80ddc:	f2a7e401 	movk	x1, #0x3f20, lsl #16
   80de0:	528012c0 	mov	w0, #0x96                  	// #150
   80de4:	b9000022 	str	w2, [x1]
   80de8:	d503201f 	nop
   80dec:	71000400 	subs	w0, w0, #0x1
   80df0:	54ffffc1 	b.ne	80de8 <init_GPIO4_to_output+0x48>  // b.any
   80df4:	d2801300 	mov	x0, #0x98                  	// #152
   80df8:	f2a7e400 	movk	x0, #0x3f20, lsl #16
   80dfc:	b900001f 	str	wzr, [x0]
   80e00:	d65f03c0 	ret
   80e04:	d503201f 	nop

0000000000080e08 <set_GPIO4>:
   80e08:	d2800380 	mov	x0, #0x1c                  	// #28
   80e0c:	52800201 	mov	w1, #0x10                  	// #16
   80e10:	f2a7e400 	movk	x0, #0x3f20, lsl #16
   80e14:	b9000001 	str	w1, [x0]
   80e18:	d65f03c0 	ret
   80e1c:	d503201f 	nop

0000000000080e20 <clear_GPIO4>:
   80e20:	d2800500 	mov	x0, #0x28                  	// #40
   80e24:	52800201 	mov	w1, #0x10                  	// #16
   80e28:	f2a7e400 	movk	x0, #0x3f20, lsl #16
   80e2c:	b9000001 	str	w1, [x0]
   80e30:	d65f03c0 	ret
   80e34:	d503201f 	nop

0000000000080e38 <init_GPIO17_to_output>:
   80e38:	d2800082 	mov	x2, #0x4                   	// #4
   80e3c:	d2801283 	mov	x3, #0x94                  	// #148
   80e40:	f2a7e402 	movk	x2, #0x3f20, lsl #16
   80e44:	f2a7e403 	movk	x3, #0x3f20, lsl #16
   80e48:	528012c0 	mov	w0, #0x96                  	// #150
   80e4c:	b9400041 	ldr	w1, [x2]
   80e50:	12087021 	and	w1, w1, #0xff1fffff
   80e54:	320b0021 	orr	w1, w1, #0x200000
   80e58:	b9000041 	str	w1, [x2]
   80e5c:	b900007f 	str	wzr, [x3]
   80e60:	d503201f 	nop
   80e64:	71000400 	subs	w0, w0, #0x1
   80e68:	54ffffc1 	b.ne	80e60 <init_GPIO17_to_output+0x28>  // b.any
   80e6c:	d2801301 	mov	x1, #0x98                  	// #152
   80e70:	52800202 	mov	w2, #0x10                  	// #16
   80e74:	f2a7e401 	movk	x1, #0x3f20, lsl #16
   80e78:	528012c0 	mov	w0, #0x96                  	// #150
   80e7c:	b9000022 	str	w2, [x1]
   80e80:	d503201f 	nop
   80e84:	71000400 	subs	w0, w0, #0x1
   80e88:	54ffffc1 	b.ne	80e80 <init_GPIO17_to_output+0x48>  // b.any
   80e8c:	d2801300 	mov	x0, #0x98                  	// #152
   80e90:	f2a7e400 	movk	x0, #0x3f20, lsl #16
   80e94:	b900001f 	str	wzr, [x0]
   80e98:	d65f03c0 	ret
   80e9c:	d503201f 	nop

0000000000080ea0 <set_GPIO17>:
   80ea0:	d2800380 	mov	x0, #0x1c                  	// #28
   80ea4:	52a00041 	mov	w1, #0x20000               	// #131072
   80ea8:	f2a7e400 	movk	x0, #0x3f20, lsl #16
   80eac:	b9000001 	str	w1, [x0]
   80eb0:	d65f03c0 	ret
   80eb4:	d503201f 	nop

0000000000080eb8 <clear_GPIO17>:
   80eb8:	d2800500 	mov	x0, #0x28                  	// #40
   80ebc:	52a00041 	mov	w1, #0x20000               	// #131072
   80ec0:	f2a7e400 	movk	x0, #0x3f20, lsl #16
   80ec4:	b9000001 	str	w1, [x0]
   80ec8:	d65f03c0 	ret
   80ecc:	d503201f 	nop

0000000000080ed0 <init_GPIO27_to_output>:
   80ed0:	d2800102 	mov	x2, #0x8                   	// #8
   80ed4:	d2801283 	mov	x3, #0x94                  	// #148
   80ed8:	f2a7e402 	movk	x2, #0x3f20, lsl #16
   80edc:	f2a7e403 	movk	x3, #0x3f20, lsl #16
   80ee0:	528012c0 	mov	w0, #0x96                  	// #150
   80ee4:	b9400041 	ldr	w1, [x2]
   80ee8:	12087021 	and	w1, w1, #0xff1fffff
   80eec:	320b0021 	orr	w1, w1, #0x200000
   80ef0:	b9000041 	str	w1, [x2]
   80ef4:	b900007f 	str	wzr, [x3]
   80ef8:	d503201f 	nop
   80efc:	71000400 	subs	w0, w0, #0x1
   80f00:	54ffffc1 	b.ne	80ef8 <init_GPIO27_to_output+0x28>  // b.any
   80f04:	d2801301 	mov	x1, #0x98                  	// #152
   80f08:	52800202 	mov	w2, #0x10                  	// #16
   80f0c:	f2a7e401 	movk	x1, #0x3f20, lsl #16
   80f10:	528012c0 	mov	w0, #0x96                  	// #150
   80f14:	b9000022 	str	w2, [x1]
   80f18:	d503201f 	nop
   80f1c:	71000400 	subs	w0, w0, #0x1
   80f20:	54ffffc1 	b.ne	80f18 <init_GPIO27_to_output+0x48>  // b.any
   80f24:	d2801300 	mov	x0, #0x98                  	// #152
   80f28:	f2a7e400 	movk	x0, #0x3f20, lsl #16
   80f2c:	b900001f 	str	wzr, [x0]
   80f30:	d65f03c0 	ret
   80f34:	d503201f 	nop

0000000000080f38 <set_GPIO27>:
   80f38:	d2800380 	mov	x0, #0x1c                  	// #28
   80f3c:	52a10001 	mov	w1, #0x8000000             	// #134217728
   80f40:	f2a7e400 	movk	x0, #0x3f20, lsl #16
   80f44:	b9000001 	str	w1, [x0]
   80f48:	d65f03c0 	ret
   80f4c:	d503201f 	nop

0000000000080f50 <clear_GPIO27>:
   80f50:	d2800500 	mov	x0, #0x28                  	// #40
   80f54:	52a10001 	mov	w1, #0x8000000             	// #134217728
   80f58:	f2a7e400 	movk	x0, #0x3f20, lsl #16
   80f5c:	b9000001 	str	w1, [x0]
   80f60:	d65f03c0 	ret
   80f64:	00000000 	.inst	0x00000000 ; undefined

0000000000080f68 <main>:
   80f68:	a9ba7bfd 	stp	x29, x30, [sp, #-96]!
   80f6c:	910003fd 	mov	x29, sp
   80f70:	a90153f3 	stp	x19, x20, [sp, #16]
   80f74:	a9025bf5 	stp	x21, x22, [sp, #32]
   80f78:	a90363f7 	stp	x23, x24, [sp, #48]
   80f7c:	a9046bf9 	stp	x25, x26, [sp, #64]
   80f80:	f9002bfb 	str	x27, [sp, #80]
   80f84:	97fffec9 	bl	80aa8 <uart_init>
   80f88:	97fffe92 	bl	809d0 <enableIRQ>
   80f8c:	97ffff41 	bl	80c90 <init_GPIO23_to_risingEdgeInterrupt>
   80f90:	97ffff62 	bl	80d18 <init_GPIO22_to_risingEdgeInterrupt>
   80f94:	d2a7e402 	mov	x2, #0x3f200000            	// #1059061760
   80f98:	d2801283 	mov	x3, #0x94                  	// #148
   80f9c:	f2a7e403 	movk	x3, #0x3f20, lsl #16
   80fa0:	528012c1 	mov	w1, #0x96                  	// #150
   80fa4:	b9400040 	ldr	w0, [x2]
   80fa8:	12117000 	and	w0, w0, #0xffff8fff
   80fac:	32140000 	orr	w0, w0, #0x1000
   80fb0:	b9000040 	str	w0, [x2]
   80fb4:	b900007f 	str	wzr, [x3]
   80fb8:	d503201f 	nop
   80fbc:	71000421 	subs	w1, w1, #0x1
   80fc0:	54ffffc1 	b.ne	80fb8 <main+0x50>  // b.any
   80fc4:	d2801301 	mov	x1, #0x98                  	// #152
   80fc8:	52800202 	mov	w2, #0x10                  	// #16
   80fcc:	f2a7e401 	movk	x1, #0x3f20, lsl #16
   80fd0:	528012c0 	mov	w0, #0x96                  	// #150
   80fd4:	b9000022 	str	w2, [x1]
   80fd8:	d503201f 	nop
   80fdc:	71000400 	subs	w0, w0, #0x1
   80fe0:	54ffffc1 	b.ne	80fd8 <main+0x70>  // b.any
   80fe4:	d2801300 	mov	x0, #0x98                  	// #152
   80fe8:	d2800082 	mov	x2, #0x4                   	// #4
   80fec:	f2a7e400 	movk	x0, #0x3f20, lsl #16
   80ff0:	f2a7e402 	movk	x2, #0x3f20, lsl #16
   80ff4:	d2801283 	mov	x3, #0x94                  	// #148
   80ff8:	528012c1 	mov	w1, #0x96                  	// #150
   80ffc:	b900001f 	str	wzr, [x0]
   81000:	f2a7e403 	movk	x3, #0x3f20, lsl #16
   81004:	b9400040 	ldr	w0, [x2]
   81008:	12087000 	and	w0, w0, #0xff1fffff
   8100c:	320b0000 	orr	w0, w0, #0x200000
   81010:	b9000040 	str	w0, [x2]
   81014:	b900007f 	str	wzr, [x3]
   81018:	d503201f 	nop
   8101c:	71000421 	subs	w1, w1, #0x1
   81020:	54ffffc1 	b.ne	81018 <main+0xb0>  // b.any
   81024:	d2801301 	mov	x1, #0x98                  	// #152
   81028:	52800202 	mov	w2, #0x10                  	// #16
   8102c:	f2a7e401 	movk	x1, #0x3f20, lsl #16
   81030:	528012c0 	mov	w0, #0x96                  	// #150
   81034:	b9000022 	str	w2, [x1]
   81038:	d503201f 	nop
   8103c:	71000400 	subs	w0, w0, #0x1
   81040:	54ffffc1 	b.ne	81038 <main+0xd0>  // b.any
   81044:	d2801300 	mov	x0, #0x98                  	// #152
   81048:	d2800102 	mov	x2, #0x8                   	// #8
   8104c:	f2a7e400 	movk	x0, #0x3f20, lsl #16
   81050:	f2a7e402 	movk	x2, #0x3f20, lsl #16
   81054:	d2801283 	mov	x3, #0x94                  	// #148
   81058:	528012c1 	mov	w1, #0x96                  	// #150
   8105c:	b900001f 	str	wzr, [x0]
   81060:	f2a7e403 	movk	x3, #0x3f20, lsl #16
   81064:	b9400040 	ldr	w0, [x2]
   81068:	12087000 	and	w0, w0, #0xff1fffff
   8106c:	320b0000 	orr	w0, w0, #0x200000
   81070:	b9000040 	str	w0, [x2]
   81074:	b900007f 	str	wzr, [x3]
   81078:	d503201f 	nop
   8107c:	71000421 	subs	w1, w1, #0x1
   81080:	54ffffc1 	b.ne	81078 <main+0x110>  // b.any
   81084:	d2801301 	mov	x1, #0x98                  	// #152
   81088:	52800202 	mov	w2, #0x10                  	// #16
   8108c:	f2a7e401 	movk	x1, #0x3f20, lsl #16
   81090:	528012c0 	mov	w0, #0x96                  	// #150
   81094:	b9000022 	str	w2, [x1]
   81098:	d503201f 	nop
   8109c:	71000400 	subs	w0, w0, #0x1
   810a0:	54ffffc1 	b.ne	81098 <main+0x130>  // b.any
   810a4:	d2801301 	mov	x1, #0x98                  	// #152
   810a8:	90000017 	adrp	x23, 81000 <main+0x98>
   810ac:	f2a7e401 	movk	x1, #0x3f20, lsl #16
   810b0:	90000000 	adrp	x0, 81000 <main+0x98>
   810b4:	91096000 	add	x0, x0, #0x258
   810b8:	d2800396 	mov	x22, #0x1c                  	// #28
   810bc:	b900003f 	str	wzr, [x1]
   810c0:	529a1215 	mov	w21, #0xd090                	// #53392
   810c4:	d2800514 	mov	x20, #0x28                  	// #40
   810c8:	52942413 	mov	w19, #0xa120                	// #41248
   810cc:	97fffec5 	bl	80be0 <uart_puts>
   810d0:	90000019 	adrp	x25, 81000 <main+0x98>
   810d4:	52800021 	mov	w1, #0x1                   	// #1
   810d8:	b902a2e1 	str	w1, [x23, #672]
   810dc:	2a0103e0 	mov	w0, w1
   810e0:	9000001a 	adrp	x26, 81000 <main+0x98>
   810e4:	f2a7e416 	movk	x22, #0x3f20, lsl #16
   810e8:	72a00075 	movk	w21, #0x3, lsl #16
   810ec:	9109e339 	add	x25, x25, #0x278
   810f0:	f2a7e414 	movk	x20, #0x3f20, lsl #16
   810f4:	72a000f3 	movk	w19, #0x7, lsl #16
   810f8:	7100041f 	cmp	w0, #0x1
   810fc:	54000120 	b.eq	81120 <main+0x1b8>  // b.none
   81100:	34000400 	cbz	w0, 81180 <main+0x218>
   81104:	529fffe0 	mov	w0, #0xffff                	// #65535
   81108:	d503201f 	nop
   8110c:	71000400 	subs	w0, w0, #0x1
   81110:	54ffffc1 	b.ne	81108 <main+0x1a0>  // b.any
   81114:	b942a2e0 	ldr	w0, [x23, #672]
   81118:	7100041f 	cmp	w0, #0x1
   8111c:	54ffff21 	b.ne	81100 <main+0x198>  // b.any
   81120:	9109c340 	add	x0, x26, #0x270
   81124:	52800218 	mov	w24, #0x10                  	// #16
   81128:	97fffeae 	bl	80be0 <uart_puts>
   8112c:	b90002d8 	str	w24, [x22]
   81130:	2a1303e0 	mov	w0, w19
   81134:	52a0005b 	mov	w27, #0x20000               	// #131072
   81138:	97fffe3c 	bl	80a28 <microsecond_delay>
   8113c:	b9000298 	str	w24, [x20]
   81140:	2a1303e0 	mov	w0, w19
   81144:	52a10018 	mov	w24, #0x8000000             	// #134217728
   81148:	97fffe38 	bl	80a28 <microsecond_delay>
   8114c:	b90002db 	str	w27, [x22]
   81150:	2a1303e0 	mov	w0, w19
   81154:	97fffe35 	bl	80a28 <microsecond_delay>
   81158:	b900029b 	str	w27, [x20]
   8115c:	2a1303e0 	mov	w0, w19
   81160:	97fffe32 	bl	80a28 <microsecond_delay>
   81164:	b90002d8 	str	w24, [x22]
   81168:	2a1303e0 	mov	w0, w19
   8116c:	97fffe2f 	bl	80a28 <microsecond_delay>
   81170:	b9000298 	str	w24, [x20]
   81174:	2a1303e0 	mov	w0, w19
   81178:	97fffe2c 	bl	80a28 <microsecond_delay>
   8117c:	17ffffe2 	b	81104 <main+0x19c>
   81180:	aa1903e0 	mov	x0, x25
   81184:	52a10018 	mov	w24, #0x8000000             	// #134217728
   81188:	97fffe96 	bl	80be0 <uart_puts>
   8118c:	b90002d8 	str	w24, [x22]
   81190:	2a1503e0 	mov	w0, w21
   81194:	52a0005b 	mov	w27, #0x20000               	// #131072
   81198:	97fffe24 	bl	80a28 <microsecond_delay>
   8119c:	b9000298 	str	w24, [x20]
   811a0:	2a1503e0 	mov	w0, w21
   811a4:	52800218 	mov	w24, #0x10                  	// #16
   811a8:	97fffe20 	bl	80a28 <microsecond_delay>
   811ac:	b90002db 	str	w27, [x22]
   811b0:	2a1503e0 	mov	w0, w21
   811b4:	97fffe1d 	bl	80a28 <microsecond_delay>
   811b8:	b900029b 	str	w27, [x20]
   811bc:	2a1503e0 	mov	w0, w21
   811c0:	97fffe1a 	bl	80a28 <microsecond_delay>
   811c4:	b90002d8 	str	w24, [x22]
   811c8:	2a1503e0 	mov	w0, w21
   811cc:	97fffe17 	bl	80a28 <microsecond_delay>
   811d0:	b9000298 	str	w24, [x20]
   811d4:	2a1503e0 	mov	w0, w21
   811d8:	97fffe14 	bl	80a28 <microsecond_delay>
   811dc:	17ffffca 	b	81104 <main+0x19c>

00000000000811e0 <IRQ_handler>:
   811e0:	a9bf7bfd 	stp	x29, x30, [sp, #-16]!
   811e4:	90000000 	adrp	x0, 81000 <main+0x98>
   811e8:	910a0000 	add	x0, x0, #0x280
   811ec:	910003fd 	mov	x29, sp
   811f0:	97fffe7c 	bl	80be0 <uart_puts>
   811f4:	d2964100 	mov	x0, #0xb208                	// #45576
   811f8:	f2a7e000 	movk	x0, #0x3f00, lsl #16
   811fc:	b9400000 	ldr	w0, [x0]
   81200:	7144001f 	cmp	w0, #0x100, lsl #12
   81204:	54000060 	b.eq	81210 <IRQ_handler+0x30>  // b.none
   81208:	a8c17bfd 	ldp	x29, x30, [sp], #16
   8120c:	d65f03c0 	ret
   81210:	d2800800 	mov	x0, #0x40                  	// #64
   81214:	f2a7e400 	movk	x0, #0x3f20, lsl #16
   81218:	b9400001 	ldr	w1, [x0]
   8121c:	7160003f 	cmp	w1, #0x800, lsl #12
   81220:	54000100 	b.eq	81240 <IRQ_handler+0x60>  // b.none
   81224:	b9400001 	ldr	w1, [x0]
   81228:	7150003f 	cmp	w1, #0x400, lsl #12
   8122c:	54fffee1 	b.ne	81208 <IRQ_handler+0x28>  // b.any
   81230:	90000002 	adrp	x2, 81000 <main+0x98>
   81234:	b9000001 	str	w1, [x0]
   81238:	b902a05f 	str	wzr, [x2, #672]
   8123c:	17fffff3 	b	81208 <IRQ_handler+0x28>
   81240:	b9000001 	str	w1, [x0]
   81244:	90000002 	adrp	x2, 81000 <main+0x98>
   81248:	52800020 	mov	w0, #0x1                   	// #1
   8124c:	a8c17bfd 	ldp	x29, x30, [sp], #16
   81250:	b902a040 	str	w0, [x2, #672]
   81254:	d65f03c0 	ret
